target datalayout = "e-m:e-p270:32:32-p271:32:32-p272:64:64-i64:64-i128:128-f80:128-n8:16:32:64-S128"
target triple = "x86_64-pc-linux-gnu"

%struct.thpool_ = type { ptr, i32, i32, %union.pthread_mutex_t, %union.pthread_cond_t, %struct.jobqueue }
%union.pthread_mutex_t = type { %struct.__pthread_mutex_s }
%struct.__pthread_mutex_s = type { i32, i32, i32, i32, i32, i16, i16, %struct.__pthread_internal_list }
%struct.__pthread_internal_list = type { ptr, ptr }
%union.pthread_cond_t = type { %struct.__pthread_cond_s }
%struct.__pthread_cond_s = type { %union.__atomic_wide_counter, %union.__atomic_wide_counter, [2 x i32], [2 x i32], i32, i32, [2 x i32] }
%union.__atomic_wide_counter = type { i64 }
%struct.jobqueue = type { %union.pthread_mutex_t, ptr, ptr, ptr, i32 }
%struct.job = type { ptr, ptr, ptr }
%struct.bsem = type { %union.pthread_mutex_t, %union.pthread_cond_t, i32 }

@stderr = external global ptr, align 8
@.str.3 = private unnamed_addr constant [58 x i8] c"thpool_add_work(): Could not allocate memory for new job\0A\00", align 1

; Function Attrs: nounwind uwtable
define internal void @bsem_post(ptr noundef %0) #0 {
  %2 = alloca ptr, align 8
  store ptr %0, ptr %2, align 8
  %3 = load ptr, ptr %2, align 8
  %4 = getelementptr inbounds %struct.bsem, ptr %3, i32 0, i32 0
  %5 = call i32 @pthread_mutex_lock(ptr noundef %4) #8
  %6 = load ptr, ptr %2, align 8
  %7 = getelementptr inbounds %struct.bsem, ptr %6, i32 0, i32 2
  store i32 1, ptr %7, align 8
  %8 = load ptr, ptr %2, align 8
  %9 = getelementptr inbounds %struct.bsem, ptr %8, i32 0, i32 1
  %10 = call i32 @pthread_cond_signal(ptr noundef %9) #8
  %11 = load ptr, ptr %2, align 8
  %12 = getelementptr inbounds %struct.bsem, ptr %11, i32 0, i32 0
  %13 = call i32 @pthread_mutex_unlock(ptr noundef %12) #8
  ret void
}

; Function Attrs: nounwind uwtable
define internal void @jobqueue_push(ptr noundef %0, ptr noundef %1) #0 {
  %3 = alloca ptr, align 8
  %4 = alloca ptr, align 8
  store ptr %0, ptr %3, align 8
  store ptr %1, ptr %4, align 8
  %5 = load ptr, ptr %3, align 8
  %6 = getelementptr inbounds %struct.jobqueue, ptr %5, i32 0, i32 0
  %7 = call i32 @pthread_mutex_lock(ptr noundef %6) #8
  %8 = load ptr, ptr %4, align 8
  %9 = getelementptr inbounds %struct.job, ptr %8, i32 0, i32 0
  store ptr null, ptr %9, align 8
  %10 = load ptr, ptr %3, align 8
  %11 = getelementptr inbounds %struct.jobqueue, ptr %10, i32 0, i32 4
  %12 = load i32, ptr %11, align 8
  switch i32 %12, label %20 [
    i32 0, label %13
  ]

13:                                               ; preds = %2
  %14 = load ptr, ptr %4, align 8
  %15 = load ptr, ptr %3, align 8
  %16 = getelementptr inbounds %struct.jobqueue, ptr %15, i32 0, i32 1
  store ptr %14, ptr %16, align 8
  %17 = load ptr, ptr %4, align 8
  %18 = load ptr, ptr %3, align 8
  %19 = getelementptr inbounds %struct.jobqueue, ptr %18, i32 0, i32 2
  store ptr %17, ptr %19, align 8
  br label %29

20:                                               ; preds = %2
  %21 = load ptr, ptr %4, align 8
  %22 = load ptr, ptr %3, align 8
  %23 = getelementptr inbounds %struct.jobqueue, ptr %22, i32 0, i32 2
  %24 = load ptr, ptr %23, align 8
  %25 = getelementptr inbounds %struct.job, ptr %24, i32 0, i32 0
  store ptr %21, ptr %25, align 8
  %26 = load ptr, ptr %4, align 8
  %27 = load ptr, ptr %3, align 8
  %28 = getelementptr inbounds %struct.jobqueue, ptr %27, i32 0, i32 2
  store ptr %26, ptr %28, align 8
  br label %29

29:                                               ; preds = %20, %13
  %30 = load ptr, ptr %3, align 8
  %31 = getelementptr inbounds %struct.jobqueue, ptr %30, i32 0, i32 4
  %32 = load i32, ptr %31, align 8
  %33 = add nsw i32 %32, 1
  store i32 %33, ptr %31, align 8
  %34 = load ptr, ptr %3, align 8
  %35 = getelementptr inbounds %struct.jobqueue, ptr %34, i32 0, i32 3
  %36 = load ptr, ptr %35, align 8
  call void @bsem_post(ptr noundef %36)
  %37 = load ptr, ptr %3, align 8
  %38 = getelementptr inbounds %struct.jobqueue, ptr %37, i32 0, i32 0
  %39 = call i32 @pthread_mutex_unlock(ptr noundef %38) #8
  ret void
}

; Function Attrs: nounwind uwtable
define dso_local i32 @thpool_add_work(ptr noundef %0, ptr noundef %1, ptr noundef %2) #0 {
  %4 = alloca i32, align 4
  %5 = alloca ptr, align 8
  %6 = alloca ptr, align 8
  %7 = alloca ptr, align 8
  %8 = alloca ptr, align 8
  store ptr %0, ptr %5, align 8
  store ptr %1, ptr %6, align 8
  store ptr %2, ptr %7, align 8
  %9 = call noalias ptr @malloc(i64 noundef 24) #7
  store ptr %9, ptr %8, align 8
  %10 = load ptr, ptr %8, align 8
  %11 = icmp eq ptr %10, null
  br i1 %11, label %12, label %15

12:                                               ; preds = %3
  %13 = load ptr, ptr @stderr, align 8
  %14 = call i32 (ptr, ptr, ...) @fprintf(ptr noundef %13, ptr noundef @.str.3) #8
  store i32 -1, ptr %4, align 4
  br label %25

15:                                               ; preds = %3
  %16 = load ptr, ptr %6, align 8
  %17 = load ptr, ptr %8, align 8
  %18 = getelementptr inbounds %struct.job, ptr %17, i32 0, i32 1
  store ptr %16, ptr %18, align 8
  %19 = load ptr, ptr %7, align 8
  %20 = load ptr, ptr %8, align 8
  %21 = getelementptr inbounds %struct.job, ptr %20, i32 0, i32 2
  store ptr %19, ptr %21, align 8
  %22 = load ptr, ptr %5, align 8
  %23 = getelementptr inbounds %struct.thpool_, ptr %22, i32 0, i32 5
  %24 = load ptr, ptr %8, align 8
  call void @jobqueue_push(ptr noundef %23, ptr noundef %24)
  store i32 0, ptr %4, align 4
  br label %25

25:                                               ; preds = %15, %12
  %26 = load i32, ptr %4, align 4
  ret i32 %26
}