; Function Attrs: nounwind uwtable
define dso_local noundef i32 @thpool_add_work(ptr noundef %0, ptr noundef %1, ptr noundef %2) local_unnamed_addr #0 {
  %4 = tail call noalias dereferenceable_or_null(24) ptr @malloc(i64 noundef 24) #12
  %5 = icmp eq ptr %4, null
  br i1 %5, label %6, label %9

6:                                                ; preds = %3
  %7 = load ptr, ptr @stderr, align 8
  %8 = tail call i64 @fwrite(ptr nonnull @.str.3, i64 57, i64 1, ptr %7) #13
  br label %32

9:                                                ; preds = %3
  %10 = getelementptr inbounds i8, ptr %4, i64 8
  store ptr %1, ptr %10, align 8
  %11 = getelementptr inbounds i8, ptr %4, i64 16
  store ptr %2, ptr %11, align 8
  %12 = getelementptr inbounds i8, ptr %0, i64 104
  %13 = tail call i32 @pthread_mutex_lock(ptr noundef nonnull %12) #14
  store ptr null, ptr %4, align 8
  %14 = getelementptr inbounds i8, ptr %0, i64 168
  %15 = load i32, ptr %14, align 8
  %cond.i = icmp eq i32 %15, 0
  br i1 %cond.i, label %16, label %19

16:                                               ; preds = %9
  %17 = getelementptr inbounds i8, ptr %0, i64 144
  store ptr %4, ptr %17, align 8
  %18 = getelementptr inbounds i8, ptr %0, i64 152
  store ptr %4, ptr %18, align 8
  br label %jobqueue_push.exit

19:                                               ; preds = %9
  %20 = getelementptr inbounds i8, ptr %0, i64 152
  %21 = load ptr, ptr %20, align 8
  store ptr %4, ptr %21, align 8
  store ptr %4, ptr %20, align 8
  %.pre.i = load i32, ptr %14, align 8
  %22 = add nsw i32 %.pre.i, 1
  br label %jobqueue_push.exit

jobqueue_push.exit:                               ; preds = %16, %19
  %23 = phi i32 [ %22, %19 ], [ 1, %16 ]
  store i32 %23, ptr %14, align 8
  %24 = getelementptr inbounds i8, ptr %0, i64 160
  %25 = load ptr, ptr %24, align 8
  %26 = tail call i32 @pthread_mutex_lock(ptr noundef %25) #14
  %27 = getelementptr inbounds i8, ptr %25, i64 88
  store i32 1, ptr %27, align 8
  %28 = getelementptr inbounds i8, ptr %25, i64 40
  %29 = tail call i32 @pthread_cond_signal(ptr noundef nonnull %28) #14
  %30 = tail call i32 @pthread_mutex_unlock(ptr noundef %25) #14
  %31 = tail call i32 @pthread_mutex_unlock(ptr noundef nonnull %12) #14
  br label %32

32:                                               ; preds = %jobqueue_push.exit, %6
  %.0 = phi i32 [ -1, %6 ], [ 0, %jobqueue_push.exit ]
  ret i32 %.0
}